; Function Attrs: mustprogress uwtable
define range(i64 0, -1023) i64 @mi_option_get_size(i32 noundef %0) local_unnamed_addr #6 {
  %or.cond.i = icmp ugt i32 %0, 36
  br i1 %or.cond.i, label %mi_option_get.exit, label %2

2:                                                ; preds = %1
  %3 = zext nneg i32 %0 to i64
  %4 = getelementptr inbounds nuw [37 x %struct.mi_option_desc_s], ptr @_ZL7options, i64 0, i64 %3
  %5 = getelementptr inbounds nuw i8, ptr %4, i64 8
  %6 = load i32, ptr %5, align 8, !tbaa !106
  %7 = icmp eq i32 %6, 0
  br i1 %7, label %8, label %9, !prof !17

8:                                                ; preds = %2
  tail call fastcc void @_ZL14mi_option_initP16mi_option_desc_s(ptr noundef nonnull %4)
  br label %9

9:                                                ; preds = %8, %2
  %10 = load i64, ptr %4, align 16, !tbaa !110
  br label %mi_option_get.exit

mi_option_get.exit:                               ; preds = %1, %9
  %.0.i = phi i64 [ %10, %9 ], [ 0, %1 ]
  %11 = tail call i64 @llvm.smax.i64(i64 %.0.i, i64 0)
  %12 = icmp eq i32 %0, 9
  %13 = icmp eq i32 %0, 23
  %14 = or i1 %12, %13
  %15 = shl i64 %11, 10
  %spec.select = select i1 %14, i64 %15, i64 %11
  ret i64 %spec.select
}